; Function Attrs: mustprogress uwtable
define hidden void @_ZN15pdatatypes_declC2EjjR13pdecl_managerjPKP14pdatatype_decl(ptr noundef nonnull align 8 dereferenceable(32) %this, i32 noundef %id, i32 noundef %num_params, ptr nocapture nonnull readnone align 8 %m, i32 noundef %num_datatypes, ptr nocapture noundef readonly %dts) unnamed_addr #3 align 2 personality ptr @__gxx_personality_v0 {
entry:
  %m_id.i = getelementptr inbounds i8, ptr %this, i64 8
  store i32 %id, ptr %m_id.i, align 8
  %m_num_params.i = getelementptr inbounds i8, ptr %this, i64 12
  store i32 %num_params, ptr %m_num_params.i, align 4
  %m_ref_count.i = getelementptr inbounds i8, ptr %this, i64 16
  store i32 0, ptr %m_ref_count.i, align 8
  store ptr getelementptr inbounds ({ [10 x ptr] }, ptr @_ZTV15pdatatypes_decl, i64 0, i32 0, i64 2), ptr %this, align 8
  %m_datatypes = getelementptr inbounds i8, ptr %this, i64 24
  store ptr null, ptr %m_datatypes, align 8
  %cmp3.not.i.i = icmp eq i32 %num_datatypes, 0
  br i1 %cmp3.not.i.i, label %for.end, label %for.body.preheader.i.i

for.body.preheader.i.i:                           ; preds = %entry
  %wide.trip.count.i.i = zext i32 %num_datatypes to i64
  br label %for.body.i.i

for.bodythread-pre-split.i.i:                     ; preds = %_ZN6vectorIP14pdatatype_declLb0EjE9push_backERKS1_.exit.i.i
  %.pr.i.i = load ptr, ptr %m_datatypes, align 8
  br label %for.body.i.i

for.body.i.i:                                     ; preds = %for.bodythread-pre-split.i.i, %for.body.preheader.i.i
  %0 = phi ptr [ %.pr.i.i, %for.bodythread-pre-split.i.i ], [ null, %for.body.preheader.i.i ]
  %indvars.iv.i.i = phi i64 [ %indvars.iv.next.i.i, %for.bodythread-pre-split.i.i ], [ 0, %for.body.preheader.i.i ]
  %arrayidx.i.i = getelementptr inbounds ptr, ptr %dts, i64 %indvars.iv.i.i
  %cmp.i.i.i = icmp eq ptr %0, null
  br i1 %cmp.i.i.i, label %if.then.i.i.i, label %lor.lhs.false.i.i.i

lor.lhs.false.i.i.i:                              ; preds = %for.body.i.i
  %arrayidx.i.i.i = getelementptr inbounds i8, ptr %0, i64 -4
  %1 = load i32, ptr %arrayidx.i.i.i, align 4
  %arrayidx4.i.i.i = getelementptr inbounds i8, ptr %0, i64 -8
  %2 = load i32, ptr %arrayidx4.i.i.i, align 4
  %cmp5.i.i.i = icmp eq i32 %1, %2
  br i1 %cmp5.i.i.i, label %if.then.i.i.i, label %_ZN6vectorIP14pdatatype_declLb0EjE9push_backERKS1_.exit.i.i

if.then.i.i.i:                                    ; preds = %lor.lhs.false.i.i.i, %for.body.i.i
  tail call void @_ZN6vectorIP14pdatatype_declLb0EjE13expand_vectorEv(ptr noundef nonnull align 8 dereferenceable(8) %m_datatypes)
  %.pre.i.i.i = load ptr, ptr %m_datatypes, align 8
  %arrayidx8.phi.trans.insert.i.i.i = getelementptr inbounds i8, ptr %.pre.i.i.i, i64 -4
  %.pre1.i.i.i = load i32, ptr %arrayidx8.phi.trans.insert.i.i.i, align 4
  br label %_ZN6vectorIP14pdatatype_declLb0EjE9push_backERKS1_.exit.i.i

_ZN6vectorIP14pdatatype_declLb0EjE9push_backERKS1_.exit.i.i: ; preds = %if.then.i.i.i, %lor.lhs.false.i.i.i
  %3 = phi i32 [ %.pre1.i.i.i, %if.then.i.i.i ], [ %1, %lor.lhs.false.i.i.i ]
  %4 = phi ptr [ %.pre.i.i.i, %if.then.i.i.i ], [ %0, %lor.lhs.false.i.i.i ]
  %idx.ext.i.i.i = zext i32 %3 to i64
  %add.ptr.i.i.i = getelementptr inbounds ptr, ptr %4, i64 %idx.ext.i.i.i
  %5 = load ptr, ptr %arrayidx.i.i, align 8
  store ptr %5, ptr %add.ptr.i.i.i, align 8
  %6 = load ptr, ptr %m_datatypes, align 8
  %arrayidx10.i.i.i = getelementptr inbounds i8, ptr %6, i64 -4
  %7 = load i32, ptr %arrayidx10.i.i.i, align 4
  %inc.i.i.i = add i32 %7, 1
  store i32 %inc.i.i.i, ptr %arrayidx10.i.i.i, align 4
  %indvars.iv.next.i.i = add nuw nsw i64 %indvars.iv.i.i, 1
  %exitcond.not.i.i = icmp eq i64 %indvars.iv.next.i.i, %wide.trip.count.i.i
  br i1 %exitcond.not.i.i, label %for.body.i, label %for.bodythread-pre-split.i.i, !llvm.loop !40

for.body.i:                                       ; preds = %_ZN6vectorIP14pdatatype_declLb0EjE9push_backERKS1_.exit.i.i, %_ZN13pdecl_manager7inc_refEP5pdecl.exit.i
  %indvars.iv.i = phi i64 [ %indvars.iv.next.i, %_ZN13pdecl_manager7inc_refEP5pdecl.exit.i ], [ 0, %_ZN6vectorIP14pdatatype_declLb0EjE9push_backERKS1_.exit.i.i ]
  %arrayidx.i = getelementptr inbounds ptr, ptr %dts, i64 %indvars.iv.i
  %8 = load ptr, ptr %arrayidx.i, align 8
  %tobool.not.i.i = icmp eq ptr %8, null
  br i1 %tobool.not.i.i, label %_ZN13pdecl_manager7inc_refEP5pdecl.exit.i, label %if.then.i.i

if.then.i.i:                                      ; preds = %for.body.i
  %m_ref_count.i.i.i = getelementptr inbounds i8, ptr %8, i64 16
  %9 = load i32, ptr %m_ref_count.i.i.i, align 8
  %inc.i.i.i7 = add i32 %9, 1
  store i32 %inc.i.i.i7, ptr %m_ref_count.i.i.i, align 8
  br label %_ZN13pdecl_manager7inc_refEP5pdecl.exit.i

_ZN13pdecl_manager7inc_refEP5pdecl.exit.i:        ; preds = %if.then.i.i, %for.body.i
  %indvars.iv.next.i = add nuw nsw i64 %indvars.iv.i, 1
  %exitcond.not.i = icmp eq i64 %indvars.iv.next.i, %wide.trip.count.i.i
  br i1 %exitcond.not.i, label %invoke.cont3, label %for.body.i, !llvm.loop !41

invoke.cont3:                                     ; preds = %_ZN13pdecl_manager7inc_refEP5pdecl.exit.i
  %.pr = load ptr, ptr %m_datatypes, align 8
  %cmp.i.i = icmp eq ptr %.pr, null
  br i1 %cmp.i.i, label %for.end, label %_ZN6vectorIP14pdatatype_declLb0EjE3endEv.exit

_ZN6vectorIP14pdatatype_declLb0EjE3endEv.exit:    ; preds = %invoke.cont3
  %arrayidx.i.i8 = getelementptr inbounds i8, ptr %.pr, i64 -4
  %10 = load i32, ptr %arrayidx.i.i8, align 4
  %11 = zext i32 %10 to i64
  %add.ptr.i = getelementptr inbounds ptr, ptr %.pr, i64 %11
  %cmp.not10 = icmp eq i32 %10, 0
  br i1 %cmp.not10, label %for.end, label %for.body

for.body:                                         ; preds = %_ZN6vectorIP14pdatatype_declLb0EjE3endEv.exit, %for.body
  %__begin1.011 = phi ptr [ %incdec.ptr, %for.body ], [ %.pr, %_ZN6vectorIP14pdatatype_declLb0EjE3endEv.exit ]
  %12 = load ptr, ptr %__begin1.011, align 8
  %m_parent = getelementptr inbounds i8, ptr %12, i64 56
  store ptr %this, ptr %m_parent, align 8
  %incdec.ptr = getelementptr inbounds i8, ptr %__begin1.011, i64 8
  %cmp.not = icmp eq ptr %incdec.ptr, %add.ptr.i
  br i1 %cmp.not, label %for.end, label %for.body

for.end:                                          ; preds = %for.body, %entry, %invoke.cont3, %_ZN6vectorIP14pdatatype_declLb0EjE3endEv.exit
  ret void
}